target datalayout = "e-m:e-p270:32:32-p271:32:32-p272:64:64-i64:64-i128:128-f80:128-n8:16:32:64-S128"
target triple = "x86_64-pc-linux-gnu"

@.str.35 = private unnamed_addr constant [2 x i8] c"\0A\00", align 1
@.str.36 = private unnamed_addr constant [7 x i8] c"HID_ID\00", align 1
@.str.37 = private unnamed_addr constant [11 x i8] c"%x:%hx:%hx\00", align 1
@.str.49 = private unnamed_addr constant [9 x i8] c"HID_NAME\00", align 1
@.str.50 = private unnamed_addr constant [9 x i8] c"HID_UNIQ\00", align 1

; Function Attrs: nounwind uwtable
define internal i32 @parse_uevent_info(ptr noundef %0, ptr noundef %1, ptr noundef %2, ptr noundef %3, ptr noundef %4, ptr noundef %5) #0 {
  %7 = alloca i32, align 4
  %8 = alloca ptr, align 8
  %9 = alloca ptr, align 8
  %10 = alloca ptr, align 8
  %11 = alloca ptr, align 8
  %12 = alloca ptr, align 8
  %13 = alloca ptr, align 8
  %14 = alloca [1024 x i8], align 16
  %15 = alloca i32, align 4
  %16 = alloca i64, align 8
  %17 = alloca ptr, align 8
  %18 = alloca ptr, align 8
  %19 = alloca ptr, align 8
  %20 = alloca ptr, align 8
  %21 = alloca i32, align 4
  %22 = alloca i32, align 4
  %23 = alloca i32, align 4
  %24 = alloca i32, align 4
  store ptr %0, ptr %8, align 8
  store ptr %1, ptr %9, align 8
  store ptr %2, ptr %10, align 8
  store ptr %3, ptr %11, align 8
  store ptr %4, ptr %12, align 8
  store ptr %5, ptr %13, align 8
  call void @llvm.lifetime.start.p0(i64 1024, ptr %14) #10
  %25 = load ptr, ptr %8, align 8
  %26 = icmp ne ptr %25, null
  br i1 %26, label %28, label %27

27:                                               ; preds = %6
  store i32 0, ptr %7, align 4
  store i32 1, ptr %15, align 4
  br label %102

28:                                               ; preds = %6
  call void @llvm.lifetime.start.p0(i64 8, ptr %16) #10
  %29 = load ptr, ptr %8, align 8
  %30 = call i64 @strlen(ptr noundef %29) #11
  store i64 %30, ptr %16, align 8
  %31 = load i64, ptr %16, align 8
  %32 = icmp ugt i64 %31, 1023
  br i1 %32, label %33, label %34

33:                                               ; preds = %28
  store i64 1023, ptr %16, align 8
  br label %34

34:                                               ; preds = %33, %28
  %35 = getelementptr inbounds [1024 x i8], ptr %14, i64 0, i64 0
  %36 = load ptr, ptr %8, align 8
  %37 = load i64, ptr %16, align 8
  call void @llvm.memcpy.p0.p0.i64(ptr align 16 %35, ptr align 1 %36, i64 %37, i1 false)
  %38 = load i64, ptr %16, align 8
  %39 = getelementptr inbounds nuw [1024 x i8], ptr %14, i64 0, i64 %38
  store i8 0, ptr %39, align 1
  call void @llvm.lifetime.start.p0(i64 8, ptr %17) #10
  store ptr null, ptr %17, align 8
  call void @llvm.lifetime.start.p0(i64 8, ptr %18) #10
  call void @llvm.lifetime.start.p0(i64 8, ptr %19) #10
  call void @llvm.lifetime.start.p0(i64 8, ptr %20) #10
  call void @llvm.lifetime.start.p0(i64 4, ptr %21) #10
  store i32 0, ptr %21, align 4
  call void @llvm.lifetime.start.p0(i64 4, ptr %22) #10
  store i32 0, ptr %22, align 4
  call void @llvm.lifetime.start.p0(i64 4, ptr %23) #10
  store i32 0, ptr %23, align 4
  %40 = getelementptr inbounds [1024 x i8], ptr %14, i64 0, i64 0
  %41 = call ptr @strtok_r(ptr noundef %40, ptr noundef @.str.35, ptr noundef %17) #10
  store ptr %41, ptr %18, align 8
  br label %42

42:                                               ; preds = %88, %34
  %43 = load ptr, ptr %18, align 8
  %44 = icmp ne ptr %43, null
  br i1 %44, label %45, label %90

45:                                               ; preds = %42
  %46 = load ptr, ptr %18, align 8
  store ptr %46, ptr %19, align 8
  %47 = load ptr, ptr %18, align 8
  %48 = call ptr @strchr(ptr noundef %47, i32 noundef 61) #11
  store ptr %48, ptr %20, align 8
  %49 = load ptr, ptr %20, align 8
  %50 = icmp ne ptr %49, null
  br i1 %50, label %52, label %51

51:                                               ; preds = %45
  br label %88

52:                                               ; preds = %45
  %53 = load ptr, ptr %20, align 8
  store i8 0, ptr %53, align 1
  %54 = load ptr, ptr %20, align 8
  %55 = getelementptr inbounds nuw i8, ptr %54, i32 1
  store ptr %55, ptr %20, align 8
  %56 = load ptr, ptr %19, align 8
  %57 = call i32 @strcmp(ptr noundef %56, ptr noundef @.str.36) #11
  %58 = icmp eq i32 %57, 0
  br i1 %58, label %59, label %69

59:                                               ; preds = %52
  call void @llvm.lifetime.start.p0(i64 4, ptr %24) #10
  %60 = load ptr, ptr %20, align 8
  %61 = load ptr, ptr %9, align 8
  %62 = load ptr, ptr %10, align 8
  %63 = load ptr, ptr %11, align 8
  %64 = call i32 (ptr, ptr, ...) @__isoc23_sscanf(ptr noundef %60, ptr noundef @.str.37, ptr noundef %61, ptr noundef %62, ptr noundef %63) #10
  store i32 %64, ptr %24, align 4
  %65 = load i32, ptr %24, align 4
  %66 = icmp eq i32 %65, 3
  br i1 %66, label %67, label %68

67:                                               ; preds = %59
  store i32 1, ptr %21, align 4
  br label %68

68:                                               ; preds = %67, %59
  call void @llvm.lifetime.end.p0(i64 4, ptr %24) #10
  br label %87

69:                                               ; preds = %52
  %70 = load ptr, ptr %19, align 8
  %71 = call i32 @strcmp(ptr noundef %70, ptr noundef @.str.49) #11
  %72 = icmp eq i32 %71, 0
  br i1 %72, label %73, label %77

73:                                               ; preds = %69
  %74 = load ptr, ptr %20, align 8
  %75 = call noalias ptr @strdup(ptr noundef %74) #10
  %76 = load ptr, ptr %13, align 8
  store ptr %75, ptr %76, align 8
  store i32 1, ptr %23, align 4
  br label %86

77:                                               ; preds = %69
  %78 = load ptr, ptr %19, align 8
  %79 = call i32 @strcmp(ptr noundef %78, ptr noundef @.str.50) #11
  %80 = icmp eq i32 %79, 0
  br i1 %80, label %81, label %85

81:                                               ; preds = %77
  %82 = load ptr, ptr %20, align 8
  %83 = call noalias ptr @strdup(ptr noundef %82) #10
  %84 = load ptr, ptr %12, align 8
  store ptr %83, ptr %84, align 8
  store i32 1, ptr %22, align 4
  br label %85

85:                                               ; preds = %81, %77
  br label %86

86:                                               ; preds = %85, %73
  br label %87

87:                                               ; preds = %86, %68
  br label %88

88:                                               ; preds = %87, %51
  %89 = call ptr @strtok_r(ptr noundef null, ptr noundef @.str.35, ptr noundef %17) #10
  store ptr %89, ptr %18, align 8
  br label %42, !llvm.loop !23

90:                                               ; preds = %42
  %91 = load i32, ptr %21, align 4
  %92 = icmp ne i32 %91, 0
  br i1 %92, label %93, label %99

93:                                               ; preds = %90
  %94 = load i32, ptr %23, align 4
  %95 = icmp ne i32 %94, 0
  br i1 %95, label %96, label %99

96:                                               ; preds = %93
  %97 = load i32, ptr %22, align 4
  %98 = icmp ne i32 %97, 0
  br label %99

99:                                               ; preds = %96, %93, %90
  %100 = phi i1 [ false, %93 ], [ false, %90 ], [ %98, %96 ]
  %101 = zext i1 %100 to i32
  store i32 %101, ptr %7, align 4
  store i32 1, ptr %15, align 4
  call void @llvm.lifetime.end.p0(i64 4, ptr %23) #10
  call void @llvm.lifetime.end.p0(i64 4, ptr %22) #10
  call void @llvm.lifetime.end.p0(i64 4, ptr %21) #10
  call void @llvm.lifetime.end.p0(i64 8, ptr %20) #10
  call void @llvm.lifetime.end.p0(i64 8, ptr %19) #10
  call void @llvm.lifetime.end.p0(i64 8, ptr %18) #10
  call void @llvm.lifetime.end.p0(i64 8, ptr %17) #10
  call void @llvm.lifetime.end.p0(i64 8, ptr %16) #10
  br label %102

102:                                              ; preds = %99, %27
  call void @llvm.lifetime.end.p0(i64 1024, ptr %14) #10
  %103 = load i32, ptr %7, align 4
  ret i32 %103
}