; Function Attrs: nounwind uwtable
define internal fastcc range(i32 0, 2) i32 @parse_uevent_info(ptr noundef readonly captures(address_is_null) %0, ptr noundef nonnull %1, ptr noundef nonnull %2, ptr noundef nonnull %3, ptr noundef nonnull writeonly captures(none) %4, ptr noundef nonnull writeonly captures(none) %5) unnamed_addr #1 {
  %7 = alloca [1024 x i8], align 16
  %8 = alloca ptr, align 8
  call void @llvm.lifetime.start.p0(i64 1024, ptr nonnull %7) #22
  %.not = icmp eq ptr %0, null
  br i1 %.not, label %39, label %9

9:                                                ; preds = %6
  %10 = tail call i64 @strlen(ptr noundef nonnull dereferenceable(1) %0) #23
  %spec.store.select = tail call i64 @llvm.umin.i64(i64 %10, i64 1023)
  call void @llvm.memcpy.p0.p0.i64(ptr nonnull align 16 %7, ptr nonnull align 1 %0, i64 %spec.store.select, i1 false)
  %11 = getelementptr inbounds nuw [1024 x i8], ptr %7, i64 0, i64 %spec.store.select
  store i8 0, ptr %11, align 1
  call void @llvm.lifetime.start.p0(i64 8, ptr nonnull %8) #22
  store ptr null, ptr %8, align 8
  %12 = call ptr @strtok_r(ptr noundef nonnull %7, ptr noundef nonnull @.str.35, ptr noundef nonnull %8) #22
  %.not3638 = icmp eq ptr %12, null
  br i1 %.not3638, label %._crit_edge, label %.lr.ph

.lr.ph:                                           ; preds = %9, %31
  %.02842 = phi i32 [ %.1, %31 ], [ 0, %9 ]
  %.02941 = phi i32 [ %.130, %31 ], [ 0, %9 ]
  %.03140 = phi i32 [ %.132, %31 ], [ 0, %9 ]
  %.03339 = phi ptr [ %32, %31 ], [ %12, %9 ]
  %13 = call ptr @strchr(ptr noundef nonnull dereferenceable(1) %.03339, i32 noundef 61) #23
  %.not37 = icmp eq ptr %13, null
  br i1 %.not37, label %31, label %14

14:                                               ; preds = %.lr.ph
  store i8 0, ptr %13, align 1
  %15 = getelementptr inbounds nuw i8, ptr %13, i64 1
  %16 = call i32 @strcmp(ptr noundef nonnull dereferenceable(1) %.03339, ptr noundef nonnull dereferenceable(7) @.str.36) #23
  %17 = icmp eq i32 %16, 0
  br i1 %17, label %18, label %21

18:                                               ; preds = %14
  %19 = call i32 (ptr, ptr, ...) @__isoc23_sscanf(ptr noundef nonnull %15, ptr noundef nonnull @.str.37, ptr noundef nonnull %1, ptr noundef nonnull %2, ptr noundef nonnull %3) #22
  %20 = icmp eq i32 %19, 3
  %spec.select = select i1 %20, i32 1, i32 %.03140
  br label %31

21:                                               ; preds = %14
  %22 = call i32 @strcmp(ptr noundef nonnull dereferenceable(1) %.03339, ptr noundef nonnull dereferenceable(9) @.str.49) #23
  %23 = icmp eq i32 %22, 0
  br i1 %23, label %24, label %26

24:                                               ; preds = %21
  %25 = call noalias ptr @strdup(ptr noundef nonnull %15) #22
  store ptr %25, ptr %5, align 8
  br label %31

26:                                               ; preds = %21
  %27 = call i32 @strcmp(ptr noundef nonnull dereferenceable(1) %.03339, ptr noundef nonnull dereferenceable(9) @.str.50) #23
  %28 = icmp eq i32 %27, 0
  br i1 %28, label %29, label %31

29:                                               ; preds = %26
  %30 = call noalias ptr @strdup(ptr noundef nonnull %15) #22
  store ptr %30, ptr %4, align 8
  br label %31

31:                                               ; preds = %18, %26, %29, %24, %.lr.ph
  %.132 = phi i32 [ %spec.select, %18 ], [ %.03140, %24 ], [ %.03140, %29 ], [ %.03140, %26 ], [ %.03140, %.lr.ph ]
  %.130 = phi i32 [ %.02941, %18 ], [ %.02941, %24 ], [ 1, %29 ], [ %.02941, %26 ], [ %.02941, %.lr.ph ]
  %.1 = phi i32 [ %.02842, %18 ], [ 1, %24 ], [ %.02842, %29 ], [ %.02842, %26 ], [ %.02842, %.lr.ph ]
  %32 = call ptr @strtok_r(ptr noundef null, ptr noundef nonnull @.str.35, ptr noundef nonnull %8) #22
  %.not36 = icmp eq ptr %32, null
  br i1 %.not36, label %._crit_edge.loopexit, label %.lr.ph, !llvm.loop !19

._crit_edge.loopexit:                             ; preds = %31
  %33 = icmp ne i32 %.132, 0
  %34 = icmp ne i32 %.1, 0
  %35 = select i1 %33, i1 %34, i1 false
  %36 = icmp ne i32 %.130, 0
  %37 = select i1 %35, i1 %36, i1 false
  %38 = zext i1 %37 to i32
  br label %._crit_edge

._crit_edge:                                      ; preds = %._crit_edge.loopexit, %9
  %.031.lcssa = phi i32 [ 0, %9 ], [ %38, %._crit_edge.loopexit ]
  call void @llvm.lifetime.end.p0(i64 8, ptr nonnull %8) #22
  br label %39

39:                                               ; preds = %6, %._crit_edge
  %.0 = phi i32 [ %.031.lcssa, %._crit_edge ], [ 0, %6 ]
  call void @llvm.lifetime.end.p0(i64 1024, ptr nonnull %7) #22
  ret i32 %.0
}